; Function Attrs: nounwind uwtable
define ptr @l_Lean_Elab_Tactic_GuardMsgs_MessageOrdering_apply(i8 noundef zeroext %0, ptr noundef %1) local_unnamed_addr #0 {
  %3 = icmp eq i8 %0, 0
  br i1 %3, label %15, label %lean_nat_eq.exit

lean_nat_eq.exit:                                 ; preds = %2
  %4 = tail call ptr @lean_array_mk(ptr noundef %1) #7
  %5 = getelementptr i8, ptr %4, i64 8
  %.val = load i64, ptr %5, align 8, !tbaa !11
  %6 = shl i64 %.val, 1
  %.not = icmp eq i64 %6, 0
  br i1 %.not, label %.sink.split, label %lean_nat_le.exit

lean_nat_le.exit:                                 ; preds = %lean_nat_eq.exit
  %7 = and i64 %.val, 9223372036854775807
  %8 = icmp eq i64 %7, 0
  %9 = add i64 %6, -1
  %10 = inttoptr i64 %9 to ptr
  %.1.i = select i1 %8, ptr inttoptr (i64 1 to ptr), ptr %10
  %11 = or disjoint i64 %6, 1
  %12 = inttoptr i64 %11 to ptr
  %13 = tail call ptr @l_Array_qsort_sort___at_Lean_Parser_Error_toString___spec__2(ptr noundef nonnull %12, ptr noundef nonnull %4, ptr noundef nonnull inttoptr (i64 1 to ptr), ptr noundef nonnull %.1.i, ptr noundef nonnull inttoptr (i64 1 to ptr), ptr noundef nonnull inttoptr (i64 1 to ptr)) #7
  br label %.sink.split

.sink.split:                                      ; preds = %lean_nat_eq.exit, %lean_nat_le.exit
  %.sink = phi ptr [ %13, %lean_nat_le.exit ], [ %4, %lean_nat_eq.exit ]
  %14 = tail call ptr @lean_array_to_list(ptr noundef %.sink) #7
  br label %15

15:                                               ; preds = %.sink.split, %2
  %.0 = phi ptr [ %1, %2 ], [ %14, %.sink.split ]
  ret ptr %.0
}